target datalayout = "e-m:e-p270:32:32-p271:32:32-p272:64:64-i64:64-i128:128-f80:128-n8:16:32:64-S128"
target triple = "x86_64-pc-linux-gnu"

%struct.If_Cut_t_ = type <{ float, float, float, float, i32, i32, i32, i48, [0 x i32] }>

; Function Attrs: nounwind uwtable
define float @If_LutDecPinRequired(ptr noundef %0, ptr noundef %1, i32 noundef %2, float noundef %3) #0 {
  %5 = alloca float, align 4
  %6 = alloca ptr, align 8
  %7 = alloca ptr, align 8
  %8 = alloca i32, align 4
  %9 = alloca float, align 4
  store ptr %0, ptr %6, align 8
  store ptr %1, ptr %7, align 8
  store i32 %2, ptr %8, align 4
  store float %3, ptr %9, align 4
  %10 = load ptr, ptr %7, align 8
  %11 = getelementptr inbounds %struct.If_Cut_t_, ptr %10, i32 0, i32 7
  %12 = load i64, ptr %11, align 4
  %13 = lshr i64 %12, 24
  %14 = and i64 %13, 255
  %15 = trunc i64 %14 to i32
  %16 = icmp eq i32 %15, 0
  br i1 %16, label %17, label %19

17:                                               ; preds = %4
  %18 = load float, ptr %9, align 4
  store float %18, ptr %5, align 4
  br label %41

19:                                               ; preds = %4
  %20 = load ptr, ptr %7, align 8
  %21 = getelementptr inbounds %struct.If_Cut_t_, ptr %20, i32 0, i32 7
  %22 = load i64, ptr %21, align 4
  %23 = lshr i64 %22, 24
  %24 = and i64 %23, 255
  %25 = trunc i64 %24 to i32
  %26 = icmp eq i32 %25, 1
  br i1 %26, label %27, label %28

27:                                               ; preds = %19
  store float 0.000000e+00, ptr %5, align 4
  br label %41

28:                                               ; preds = %19
  %29 = load ptr, ptr %7, align 8
  %30 = getelementptr inbounds %struct.If_Cut_t_, ptr %29, i32 0, i32 7
  %31 = load i64, ptr %30, align 4
  %32 = lshr i64 %31, 32
  %33 = and i64 %32, 65535
  %34 = trunc i64 %33 to i32
  %35 = load i32, ptr %8, align 4
  %36 = ashr i32 %34, %35
  %37 = and i32 %36, 1
  %38 = icmp eq i32 %37, 0
  %39 = select i1 %38, i32 2, i32 1
  %40 = sitofp i32 %39 to float
  store float %40, ptr %5, align 4
  br label %41

41:                                               ; preds = %28, %27, %17
  %42 = load float, ptr %5, align 4
  ret float %42
}