; Function Attrs: mustprogress nofree norecurse nosync nounwind willreturn memory(argmem: read) uwtable
define float @If_LutDecPinRequired(ptr noundef readnone captures(none) %0, ptr noundef readonly captures(none) %1, i32 noundef %2, float noundef %3) local_unnamed_addr #5 {
  %5 = getelementptr inbounds nuw i8, ptr %1, i64 28
  %6 = load i64, ptr %5, align 4
  %7 = trunc i64 %6 to i32
  %8 = icmp ult i32 %7, 16777216
  br i1 %8, label %20, label %9

9:                                                ; preds = %4
  %.mask = and i32 %7, -16777216
  %10 = icmp eq i32 %.mask, 16777216
  br i1 %10, label %20, label %11

11:                                               ; preds = %9
  %12 = lshr i64 %6, 32
  %13 = trunc nuw i64 %12 to i32
  %14 = shl nuw i32 1, %2
  %15 = and i32 %14, 65535
  %16 = and i32 %15, %13
  %17 = icmp eq i32 %16, 0
  %18 = select i1 %17, i32 2, i32 1
  %19 = uitofp nneg i32 %18 to float
  br label %20

20:                                               ; preds = %9, %4, %11
  %.0 = phi float [ %19, %11 ], [ %3, %4 ], [ 0.000000e+00, %9 ]
  ret float %.0
}